; Function Attrs: nounwind uwtable
define ptr @l_Option_repr___at_Lean_Environment_dbgFormatAsyncState___spec__29(ptr noundef %0, ptr noundef %1) local_unnamed_addr #1 {
  %3 = ptrtoint ptr %0 to i64
  %4 = and i64 %3, 1
  %.not.i15 = icmp eq i64 %4, 0
  br i1 %.not.i15, label %8, label %5

5:                                                ; preds = %2
  %6 = lshr i64 %3, 1
  %7 = trunc i64 %6 to i32
  br label %lean_obj_tag.exit

8:                                                ; preds = %2
  %9 = getelementptr i8, ptr %0, i64 4
  %.val.i = load i32, ptr %9, align 4
  %10 = lshr i32 %.val.i, 24
  br label %lean_obj_tag.exit

lean_obj_tag.exit:                                ; preds = %5, %8
  %.0.i = phi i32 [ %7, %5 ], [ %10, %8 ]
  %11 = icmp eq i32 %.0.i, 0
  br i1 %11, label %12, label %14

12:                                               ; preds = %lean_obj_tag.exit
  %13 = load ptr, ptr @l_Option_repr___at_Lean_Environment_dbgFormatAsyncState___spec__17___closed__2, align 8, !tbaa !9
  br label %41

14:                                               ; preds = %lean_obj_tag.exit
  %15 = getelementptr inbounds nuw i8, ptr %0, i64 8
  %16 = load ptr, ptr %15, align 8, !tbaa !9
  %17 = ptrtoint ptr %16 to i64
  %18 = and i64 %17, 1
  %.not = icmp eq i64 %18, 0
  br i1 %.not, label %19, label %lean_inc.exit

19:                                               ; preds = %14
  %.val.i16 = load i32, ptr %16, align 4, !tbaa !4
  %20 = icmp sgt i32 %.val.i16, 0
  br i1 %20, label %21, label %23, !prof !11

21:                                               ; preds = %19
  %22 = add nuw i32 %.val.i16, 1
  store i32 %22, ptr %16, align 4, !tbaa !4
  br label %lean_inc.exit

23:                                               ; preds = %19
  %.not.i17 = icmp eq i32 %.val.i16, 0
  br i1 %.not.i17, label %lean_inc.exit, label %24

24:                                               ; preds = %23
  tail call void @lean_inc_ref_cold(ptr noundef nonnull %16) #10
  br label %lean_inc.exit

lean_inc.exit:                                    ; preds = %24, %23, %21, %14
  br i1 %.not.i15, label %25, label %lean_dec.exit

25:                                               ; preds = %lean_inc.exit
  %26 = load i32, ptr %0, align 4, !tbaa !4
  %27 = icmp sgt i32 %26, 1
  br i1 %27, label %28, label %30, !prof !11

28:                                               ; preds = %25
  %29 = add nsw i32 %26, -1
  store i32 %29, ptr %0, align 4, !tbaa !4
  br label %lean_dec.exit

30:                                               ; preds = %25
  %.not.i = icmp eq i32 %26, 0
  br i1 %.not.i, label %lean_dec.exit, label %31

31:                                               ; preds = %30
  tail call void @lean_dec_ref_cold(ptr noundef nonnull %0) #10
  br label %lean_dec.exit

lean_dec.exit:                                    ; preds = %31, %30, %28, %lean_inc.exit
  %32 = tail call ptr @l_Lean_Name_reprPrec(ptr noundef %16, ptr noundef nonnull inttoptr (i64 2049 to ptr)) #10
  %33 = load ptr, ptr @l_Option_repr___at_Lean_Environment_dbgFormatAsyncState___spec__17___closed__4, align 8, !tbaa !9
  tail call void @lean_inc_heartbeat() #10
  %34 = tail call noalias ptr @mi_malloc_small(i64 noundef 24) #10
  %35 = icmp eq ptr %34, null
  br i1 %35, label %36, label %lean_alloc_ctor.exit

36:                                               ; preds = %lean_dec.exit
  tail call void @lean_internal_panic_out_of_memory() #11
  unreachable

lean_alloc_ctor.exit:                             ; preds = %lean_dec.exit
  %37 = getelementptr inbounds nuw i8, ptr %34, i64 4
  store i32 1, ptr %34, align 4, !tbaa !4
  store i32 84017176, ptr %37, align 4
  %38 = getelementptr inbounds nuw i8, ptr %34, i64 8
  store ptr %33, ptr %38, align 8, !tbaa !9
  %39 = getelementptr inbounds nuw i8, ptr %34, i64 16
  store ptr %32, ptr %39, align 8, !tbaa !9
  %40 = tail call ptr @l_Repr_addAppParen(ptr noundef nonnull %34, ptr noundef %1) #10
  br label %41

41:                                               ; preds = %lean_alloc_ctor.exit, %12
  %.0 = phi ptr [ %13, %12 ], [ %40, %lean_alloc_ctor.exit ]
  ret ptr %.0
}